; Function Attrs: mustprogress uwtable
define noundef zeroext i1 @_ZN9grpc_core29FakeResolverResponseGenerator26WaitForReresolutionRequestEN4absl12lts_202308028DurationE(ptr noundef nonnull align 8 dereferenceable(185) %this, i64 %timeout.coerce0, i32 %timeout.coerce1) local_unnamed_addr #3 align 2 personality ptr @__gxx_personality_v0 {
entry:
  %condition = alloca %"class.absl::lts_20230802::CondVar", align 8
  %reresolution_mu_ = getelementptr inbounds i8, ptr %this, i64 168
  tail call void @_ZN4absl12lts_202308025Mutex4LockEv(ptr noundef nonnull align 8 dereferenceable(8) %reresolution_mu_)
  %reresolution_requested_ = getelementptr inbounds i8, ptr %this, i64 184
  %0 = load i8, ptr %reresolution_requested_, align 8
  %1 = and i8 %0, 1
  %tobool.not = icmp eq i8 %1, 0
  br i1 %tobool.not, label %if.then, label %if.end

if.then:                                          ; preds = %entry
  store i64 0, ptr %condition, align 8
  %reresolution_cv_ = getelementptr inbounds i8, ptr %this, i64 176
  store ptr %condition, ptr %reresolution_cv_, align 8
  %call = invoke noundef zeroext i1 @_ZN4absl12lts_202308027CondVar15WaitWithTimeoutEPNS0_5MutexENS0_8DurationE(ptr noundef nonnull align 8 dereferenceable(8) %condition, ptr noundef nonnull %reresolution_mu_, i64 %timeout.coerce0, i32 %timeout.coerce1)
          to label %invoke.cont4 unwind label %lpad3

invoke.cont4:                                     ; preds = %if.then
  store ptr null, ptr %reresolution_cv_, align 8
  call void @_ZN4absl12lts_202308027CondVarD1Ev(ptr noundef nonnull align 8 dereferenceable(8) %condition) #17
  %.pre = load i8, ptr %reresolution_requested_, align 8
  br label %if.end

lpad3:                                            ; preds = %if.then
  %2 = landingpad { ptr, i32 }
          cleanup
  call void @_ZN4absl12lts_202308027CondVarD1Ev(ptr noundef nonnull align 8 dereferenceable(8) %condition) #17
  invoke void @_ZN4absl12lts_202308025Mutex6UnlockEv(ptr noundef nonnull align 8 dereferenceable(8) %reresolution_mu_)
          to label %_ZN4absl12lts_202308029MutexLockD2Ev.exit unwind label %terminate.lpad.i

terminate.lpad.i:                                 ; preds = %lpad3
  %3 = landingpad { ptr, i32 }
          catch ptr null
  %4 = extractvalue { ptr, i32 } %3, 0
  call void @__clang_call_terminate(ptr %4) #18
  unreachable

_ZN4absl12lts_202308029MutexLockD2Ev.exit:        ; preds = %lpad3
  resume { ptr, i32 } %2

if.end:                                           ; preds = %invoke.cont4, %entry
  %5 = phi i8 [ %.pre, %invoke.cont4 ], [ %0, %entry ]
  store i8 0, ptr %reresolution_requested_, align 8
  invoke void @_ZN4absl12lts_202308025Mutex6UnlockEv(ptr noundef nonnull align 8 dereferenceable(8) %reresolution_mu_)
          to label %_ZN4absl12lts_202308029MutexLockD2Ev.exit2 unwind label %terminate.lpad.i1

terminate.lpad.i1:                                ; preds = %if.end
  %6 = landingpad { ptr, i32 }
          catch ptr null
  %7 = extractvalue { ptr, i32 } %6, 0
  call void @__clang_call_terminate(ptr %7) #18
  unreachable

_ZN4absl12lts_202308029MutexLockD2Ev.exit2:       ; preds = %if.end
  %8 = and i8 %5, 1
  %tobool.i.i = icmp ne i8 %8, 0
  ret i1 %tobool.i.i
}